target datalayout = "e-m:e-p270:32:32-p271:32:32-p272:64:64-i64:64-i128:128-f80:128-n8:16:32:64-S128"
target triple = "x86_64-pc-linux-gnu"

%"class.icu_77::MaybeStackArray" = type <{ ptr, i32, i8, [40 x i8], [3 x i8] }>
%"class.icu_77::CharString" = type { %"class.icu_77::MaybeStackArray", i32, [4 x i8] }
%"class.icu_77::BytesTrieBuilder" = type { %"class.icu_77::StringTrieBuilder", ptr, ptr, i32, i32, ptr, i32, i32 }
%"class.icu_77::StringTrieBuilder" = type { %"class.icu_77::UObject", ptr }
%"class.icu_77::UObject" = type { ptr }

@_ZN6icu_7715MaybeStackArrayIcLi40EED1Ev = weak_odr unnamed_addr alias void (ptr), ptr @_ZN6icu_7715MaybeStackArrayIcLi40EED2Ev

; Function Attrs: mustprogress nounwind uwtable
define linkonce_odr void @_ZN6icu_7710CharStringD2Ev(ptr noundef nonnull align 8 dereferenceable(60) %0) unnamed_addr #0 comdat align 2 {
  %2 = alloca ptr, align 8
  store ptr %0, ptr %2, align 8, !tbaa !25
  %3 = load ptr, ptr %2, align 8
  %4 = getelementptr inbounds nuw %"class.icu_77::CharString", ptr %3, i32 0, i32 0
  call void @_ZN6icu_7715MaybeStackArrayIcLi40EED1Ev(ptr noundef nonnull align 8 dereferenceable(53) %4) #12
  ret void
}

; Function Attrs: mustprogress nounwind uwtable
define void @_ZN6icu_7716BytesTrieBuilderD2Ev(ptr noundef nonnull align 8 dereferenceable(56) %0) unnamed_addr #0 align 2 personality ptr @__gxx_personality_v0 {
  %2 = alloca ptr, align 8
  store ptr %0, ptr %2, align 8, !tbaa !37
  %3 = load ptr, ptr %2, align 8
  store ptr getelementptr inbounds inrange(-16, 160) ({ [22 x ptr] }, ptr @_ZTVN6icu_7716BytesTrieBuilderE, i32 0, i32 0, i32 2), ptr %3, align 8, !tbaa !39
  %4 = getelementptr inbounds nuw %"class.icu_77::BytesTrieBuilder", ptr %3, i32 0, i32 1
  %5 = load ptr, ptr %4, align 8, !tbaa !41
  %6 = icmp eq ptr %5, null
  br i1 %6, label %8, label %7

7:                                                ; preds = %1
  call void @_ZN6icu_7710CharStringD2Ev(ptr noundef nonnull align 8 dereferenceable(60) %5) #12
  call void @_ZN6icu_777UMemorydlEPv(ptr noundef %5) #12
  br label %8

8:                                                ; preds = %7, %1
  %9 = getelementptr inbounds nuw %"class.icu_77::BytesTrieBuilder", ptr %3, i32 0, i32 2
  %10 = load ptr, ptr %9, align 8, !tbaa !46
  %11 = icmp eq ptr %10, null
  br i1 %11, label %13, label %12

12:                                               ; preds = %8
  call void @_ZN6icu_777UMemorydaEPv(ptr noundef %10) #12
  br label %13

13:                                               ; preds = %12, %8
  %14 = getelementptr inbounds nuw %"class.icu_77::BytesTrieBuilder", ptr %3, i32 0, i32 5
  %15 = load ptr, ptr %14, align 8, !tbaa !49
  invoke void @uprv_free_77(ptr noundef %15)
          to label %16 unwind label %17

16:                                               ; preds = %13
  call void @_ZN6icu_7717StringTrieBuilderD2Ev(ptr noundef nonnull align 8 dereferenceable(16) %3) #12
  ret void

17:                                               ; preds = %13
  %18 = landingpad { ptr, i32 }
          catch ptr null
  %19 = extractvalue { ptr, i32 } %18, 0
  call void @__clang_call_terminate(ptr %19) #14
  unreachable
}